target datalayout = "e-m:e-p270:32:32-p271:32:32-p272:64:64-i64:64-i128:128-f80:128-n8:16:32:64-S128"
target triple = "x86_64-pc-linux-gnu"

%struct.ident_t = type { i32, i32, i32, i32, ptr }
%"class.gmx::ArrayRef" = type { %"struct.gmx::ArrayRefIter", %"struct.gmx::ArrayRefIter" }
%"struct.gmx::ArrayRefIter" = type { ptr }
%struct.gmx_pme_t = type { i32, i32, i32, i32, i32, i32, i32, ptr, [2 x ptr], ptr, i8, i32, i8, i8, i8, i8, i8, i8, i32, i32, i32, i8, i32, float, float, float, i32, float, i32, ptr, %"class.std::unique_ptr", i32, i32, i32, i32, i32, i32, i32, i32, %"class.std::unique_ptr.2", %"class.std::shared_ptr", %"class.std::vector", %"class.std::vector", %"class.std::vector.10", %"class.std::vector.15", %"class.std::vector.20", %"class.std::vector.20", %"class.std::vector.20", %"class.std::vector.25", %"class.std::vector.25", %"class.std::vector.25", %"class.std::vector.30", [3 x [3 x float]], float, %"struct.std::array", %"class.std::vector.35", %"class.std::vector.35", %"struct.std::array.37", %"class.std::unique_ptr.43", %"class.std::vector.51", %"class.std::vector.25", %"class.std::unique_ptr.56" }
%"class.std::unique_ptr" = type { %"struct.std::__uniq_ptr_data" }
%"struct.std::__uniq_ptr_data" = type { %"class.std::__uniq_ptr_impl" }
%"class.std::__uniq_ptr_impl" = type { %"class.std::tuple" }
%"class.std::tuple" = type { %"struct.std::_Tuple_impl" }
%"struct.std::_Tuple_impl" = type { %"struct.std::_Head_base.1" }
%"struct.std::_Head_base.1" = type { ptr }
%"class.std::unique_ptr.2" = type { %"struct.std::__uniq_ptr_data.3" }
%"struct.std::__uniq_ptr_data.3" = type { %"class.std::__uniq_ptr_impl.4" }
%"class.std::__uniq_ptr_impl.4" = type { %"class.std::tuple.5" }
%"class.std::tuple.5" = type { %"struct.std::_Tuple_impl.6" }
%"struct.std::_Tuple_impl.6" = type { %"struct.std::_Head_base.9" }
%"struct.std::_Head_base.9" = type { ptr }
%"class.std::shared_ptr" = type { %"class.std::__shared_ptr" }
%"class.std::__shared_ptr" = type { ptr, %"class.std::__shared_count" }
%"class.std::__shared_count" = type { ptr }
%"class.std::vector" = type { %"struct.std::_Vector_base" }
%"struct.std::_Vector_base" = type { %"struct.std::_Vector_base<PmeAndFftGrids, std::allocator<PmeAndFftGrids>>::_Vector_impl" }
%"struct.std::_Vector_base<PmeAndFftGrids, std::allocator<PmeAndFftGrids>>::_Vector_impl" = type { %"struct.std::_Vector_base<PmeAndFftGrids, std::allocator<PmeAndFftGrids>>::_Vector_impl_data" }
%"struct.std::_Vector_base<PmeAndFftGrids, std::allocator<PmeAndFftGrids>>::_Vector_impl_data" = type { ptr, ptr, ptr }
%"class.std::vector.10" = type { %"struct.std::_Vector_base.11" }
%"struct.std::_Vector_base.11" = type { %"struct.std::_Vector_base<gmx_pme_t::GridsRef, std::allocator<gmx_pme_t::GridsRef>>::_Vector_impl" }
%"struct.std::_Vector_base<gmx_pme_t::GridsRef, std::allocator<gmx_pme_t::GridsRef>>::_Vector_impl" = type { %"struct.std::_Vector_base<gmx_pme_t::GridsRef, std::allocator<gmx_pme_t::GridsRef>>::_Vector_impl_data" }
%"struct.std::_Vector_base<gmx_pme_t::GridsRef, std::allocator<gmx_pme_t::GridsRef>>::_Vector_impl_data" = type { ptr, ptr, ptr }
%"class.std::vector.15" = type { %"struct.std::_Vector_base.16" }
%"struct.std::_Vector_base.16" = type { %"struct.std::_Vector_base<t_complex *, std::allocator<t_complex *>>::_Vector_impl" }
%"struct.std::_Vector_base<t_complex *, std::allocator<t_complex *>>::_Vector_impl" = type { %"struct.std::_Vector_base<t_complex *, std::allocator<t_complex *>>::_Vector_impl_data" }
%"struct.std::_Vector_base<t_complex *, std::allocator<t_complex *>>::_Vector_impl_data" = type { ptr, ptr, ptr }
%"class.std::vector.20" = type { %"struct.std::_Vector_base.21" }
%"struct.std::_Vector_base.21" = type { %"struct.std::_Vector_base<int, std::allocator<int>>::_Vector_impl" }
%"struct.std::_Vector_base<int, std::allocator<int>>::_Vector_impl" = type { %"struct.std::_Vector_base<int, std::allocator<int>>::_Vector_impl_data" }
%"struct.std::_Vector_base<int, std::allocator<int>>::_Vector_impl_data" = type { ptr, ptr, ptr }
%"class.std::vector.30" = type { %"struct.std::_Vector_base.31" }
%"struct.std::_Vector_base.31" = type { %"struct.std::_Vector_base<PmeAtomComm, std::allocator<PmeAtomComm>>::_Vector_impl" }
%"struct.std::_Vector_base<PmeAtomComm, std::allocator<PmeAtomComm>>::_Vector_impl" = type { %"struct.std::_Vector_base<PmeAtomComm, std::allocator<PmeAtomComm>>::_Vector_impl_data" }
%"struct.std::_Vector_base<PmeAtomComm, std::allocator<PmeAtomComm>>::_Vector_impl_data" = type { ptr, ptr, ptr }
%"struct.std::array" = type { [3 x %"class.std::vector.25"] }
%"class.std::vector.35" = type { %"struct.std::_Vector_base.36" }
%"struct.std::_Vector_base.36" = type { %"struct.std::_Vector_base<float, gmx::DefaultInitializationAllocator<float>>::_Vector_impl" }
%"struct.std::_Vector_base<float, gmx::DefaultInitializationAllocator<float>>::_Vector_impl" = type { %"struct.std::_Vector_base<float, gmx::DefaultInitializationAllocator<float>>::_Vector_impl_data" }
%"struct.std::_Vector_base<float, gmx::DefaultInitializationAllocator<float>>::_Vector_impl_data" = type { ptr, ptr, ptr }
%"struct.std::array.37" = type { [2 x %struct.pme_overlap_t] }
%struct.pme_overlap_t = type { ptr, i32, i32, %"class.std::vector.20", %"class.std::vector.20", i32, %"class.std::vector.38", %"class.std::vector.25", %"class.std::vector.25" }
%"class.std::vector.38" = type { %"struct.std::_Vector_base.39" }
%"struct.std::_Vector_base.39" = type { %"struct.std::_Vector_base<pme_grid_comm_t, std::allocator<pme_grid_comm_t>>::_Vector_impl" }
%"struct.std::_Vector_base<pme_grid_comm_t, std::allocator<pme_grid_comm_t>>::_Vector_impl" = type { %"struct.std::_Vector_base<pme_grid_comm_t, std::allocator<pme_grid_comm_t>>::_Vector_impl_data" }
%"struct.std::_Vector_base<pme_grid_comm_t, std::allocator<pme_grid_comm_t>>::_Vector_impl_data" = type { ptr, ptr, ptr }
%"class.std::unique_ptr.43" = type { %"struct.std::__uniq_ptr_data.44" }
%"struct.std::__uniq_ptr_data.44" = type { %"class.std::__uniq_ptr_impl.45" }
%"class.std::__uniq_ptr_impl.45" = type { %"class.std::tuple.46" }
%"class.std::tuple.46" = type { %"struct.std::_Tuple_impl.47" }
%"struct.std::_Tuple_impl.47" = type { %"struct.std::_Head_base.50" }
%"struct.std::_Head_base.50" = type { ptr }
%"class.std::vector.51" = type { %"struct.std::_Vector_base.52" }
%"struct.std::_Vector_base.52" = type { %"struct.std::_Vector_base<gmx::BasicVector<float>, std::allocator<gmx::BasicVector<float>>>::_Vector_impl" }
%"struct.std::_Vector_base<gmx::BasicVector<float>, std::allocator<gmx::BasicVector<float>>>::_Vector_impl" = type { %"struct.std::_Vector_base<gmx::BasicVector<float>, std::allocator<gmx::BasicVector<float>>>::_Vector_impl_data" }
%"struct.std::_Vector_base<gmx::BasicVector<float>, std::allocator<gmx::BasicVector<float>>>::_Vector_impl_data" = type { ptr, ptr, ptr }
%"class.std::vector.25" = type { %"struct.std::_Vector_base.26" }
%"struct.std::_Vector_base.26" = type { %"struct.std::_Vector_base<float, std::allocator<float>>::_Vector_impl" }
%"struct.std::_Vector_base<float, std::allocator<float>>::_Vector_impl" = type { %"struct.std::_Vector_base<float, std::allocator<float>>::_Vector_impl_data" }
%"struct.std::_Vector_base<float, std::allocator<float>>::_Vector_impl_data" = type { ptr, ptr, ptr }
%"class.std::unique_ptr.56" = type { %"struct.std::__uniq_ptr_data.57" }
%"struct.std::__uniq_ptr_data.57" = type { %"class.std::__uniq_ptr_impl.58" }
%"class.std::__uniq_ptr_impl.58" = type { %"class.std::tuple.59" }
%"class.std::tuple.59" = type { %"struct.std::_Tuple_impl.60" }
%"struct.std::_Tuple_impl.60" = type { %"struct.std::_Head_base.63" }
%"struct.std::_Head_base.63" = type { ptr }

@1 = private unnamed_addr constant %struct.ident_t { i32 0, i32 514, i32 0, i32 22, ptr @0 }, align 8

; Function Attrs: mustprogress nounwind uwtable
define linkonce_odr noundef nonnull align 4 dereferenceable(4) ptr @_ZNK3gmx12ArrayRefIterIfEdeEv(ptr noundef nonnull align 8 dereferenceable(8) %0) #2 comdat align 2 {
  %2 = alloca ptr, align 8
  store ptr %0, ptr %2, align 8, !tbaa !147
  %3 = load ptr, ptr %2, align 8
  %4 = getelementptr inbounds nuw %"struct.gmx::ArrayRefIter", ptr %3, i32 0, i32 0
  %5 = load ptr, ptr %4, align 8, !tbaa !149
  ret ptr %5
}

; Function Attrs: mustprogress nounwind uwtable
define linkonce_odr noundef nonnull align 8 dereferenceable(8) ptr @_ZN3gmx12ArrayRefIterIfEpLEl(ptr noundef nonnull align 8 dereferenceable(8) %0, i64 noundef %1) #2 comdat align 2 {
  %3 = alloca ptr, align 8
  %4 = alloca i64, align 8
  store ptr %0, ptr %3, align 8, !tbaa !147
  store i64 %1, ptr %4, align 8, !tbaa !13
  %5 = load ptr, ptr %3, align 8
  %6 = load i64, ptr %4, align 8, !tbaa !13
  %7 = getelementptr inbounds nuw %"struct.gmx::ArrayRefIter", ptr %5, i32 0, i32 0
  %8 = load ptr, ptr %7, align 8, !tbaa !149
  %9 = getelementptr inbounds float, ptr %8, i64 %6
  store ptr %9, ptr %7, align 8, !tbaa !149
  ret ptr %5
}

; Function Attrs: mustprogress nounwind uwtable
define linkonce_odr noundef nonnull align 8 dereferenceable(8) ptr @_ZNK3gmx5boost14stl_interfaces2v118iterator_interfaceINS_12ArrayRefIterIfEESt26random_access_iterator_tagfRfPflvE7derivedEv(ptr noundef nonnull align 1 dereferenceable(1) %0) #2 comdat align 2 {
  %2 = alloca ptr, align 8
  store ptr %0, ptr %2, align 8, !tbaa !145
  %3 = load ptr, ptr %2, align 8
  ret ptr %3
}

; Function Attrs: mustprogress nounwind uwtable
define linkonce_odr noundef nonnull align 4 dereferenceable(4) ptr @_ZNK3gmx5boost14stl_interfaces2v118iterator_interfaceINS_12ArrayRefIterIfEESt26random_access_iterator_tagfRfPflvEixIS5_EEDTcmpLclsr3stdE7declvalIRT_EEfp_declsr3stdE7declvalISC_EEEl(ptr noundef nonnull align 1 dereferenceable(1) %0, i64 noundef %1) #2 comdat align 2 {
  %3 = alloca ptr, align 8
  %4 = alloca i64, align 8
  %5 = alloca %"struct.gmx::ArrayRefIter", align 8
  store ptr %0, ptr %3, align 8, !tbaa !145
  store i64 %1, ptr %4, align 8, !tbaa !13
  %6 = load ptr, ptr %3, align 8
  call void @llvm.lifetime.start.p0(i64 8, ptr %5) #7
  %7 = call noundef nonnull align 8 dereferenceable(8) ptr @_ZNK3gmx5boost14stl_interfaces2v118iterator_interfaceINS_12ArrayRefIterIfEESt26random_access_iterator_tagfRfPflvE7derivedEv(ptr noundef nonnull align 1 dereferenceable(1) %6) #7
  call void @llvm.memcpy.p0.p0.i64(ptr align 8 %5, ptr align 8 %7, i64 8, i1 false)
  %8 = load i64, ptr %4, align 8, !tbaa !13
  %9 = call noundef nonnull align 8 dereferenceable(8) ptr @_ZN3gmx12ArrayRefIterIfEpLEl(ptr noundef nonnull align 8 dereferenceable(8) %5, i64 noundef %8) #7
  %10 = call noundef nonnull align 4 dereferenceable(4) ptr @_ZNK3gmx12ArrayRefIterIfEdeEv(ptr noundef nonnull align 8 dereferenceable(8) %5) #7
  call void @llvm.lifetime.end.p0(i64 8, ptr %5) #7
  ret ptr %10
}

; Function Attrs: mustprogress nounwind uwtable
define linkonce_odr noundef nonnull align 4 dereferenceable(4) ptr @_ZNK3gmx8ArrayRefIfEixEm(ptr noundef nonnull align 8 dereferenceable(16) %0, i64 noundef %1) #2 comdat align 2 {
  %3 = alloca ptr, align 8
  %4 = alloca i64, align 8
  store ptr %0, ptr %3, align 8, !tbaa !140
  store i64 %1, ptr %4, align 8, !tbaa !13
  %5 = load ptr, ptr %3, align 8
  %6 = getelementptr inbounds nuw %"class.gmx::ArrayRef", ptr %5, i32 0, i32 0
  %7 = load i64, ptr %4, align 8, !tbaa !13
  %8 = call noundef nonnull align 4 dereferenceable(4) ptr @_ZNK3gmx5boost14stl_interfaces2v118iterator_interfaceINS_12ArrayRefIterIfEESt26random_access_iterator_tagfRfPflvEixIS5_EEDTcmpLclsr3stdE7declvalIRT_EEfp_declsr3stdE7declvalISC_EEEl(ptr noundef nonnull align 1 dereferenceable(1) %6, i64 noundef %7) #7
  ret ptr %8
}

; Function Attrs: alwaysinline norecurse nounwind uwtable
define internal void @_Z23unwrap_periodic_pmegridP9gmx_pme_tN3gmx8ArrayRefIfEE.omp_outlined.2(ptr noalias noundef %0, ptr noalias noundef %1, ptr noundef nonnull align 8 dereferenceable(8) %2, ptr noundef nonnull align 4 dereferenceable(4) %3, ptr noundef nonnull align 8 dereferenceable(16) %4, ptr noundef nonnull align 4 dereferenceable(4) %5, ptr noundef nonnull align 4 dereferenceable(4) %6, ptr noundef nonnull align 4 dereferenceable(4) %7) #6 {
  %9 = alloca ptr, align 8
  %10 = alloca ptr, align 8
  %11 = alloca ptr, align 8
  %12 = alloca ptr, align 8
  %13 = alloca ptr, align 8
  %14 = alloca ptr, align 8
  %15 = alloca ptr, align 8
  %16 = alloca ptr, align 8
  %17 = alloca i32, align 4
  %18 = alloca i32, align 4
  %19 = alloca i32, align 4
  %20 = alloca i32, align 4
  %21 = alloca i32, align 4
  %22 = alloca i32, align 4
  %23 = alloca i32, align 4
  %24 = alloca i32, align 4
  %25 = alloca i32, align 4
  %26 = alloca i32, align 4
  %27 = alloca i32, align 4
  store ptr %0, ptr %9, align 8, !tbaa !205
  store ptr %1, ptr %10, align 8, !tbaa !205
  store ptr %2, ptr %11, align 8, !tbaa !206
  store ptr %3, ptr %12, align 8, !tbaa !205
  store ptr %4, ptr %13, align 8, !tbaa !140
  store ptr %5, ptr %14, align 8, !tbaa !205
  store ptr %6, ptr %15, align 8, !tbaa !205
  store ptr %7, ptr %16, align 8, !tbaa !205
  %28 = load ptr, ptr %11, align 8, !tbaa !206
  %29 = load ptr, ptr %12, align 8, !tbaa !205
  %30 = load ptr, ptr %13, align 8, !tbaa !140
  %31 = load ptr, ptr %14, align 8, !tbaa !205
  %32 = load ptr, ptr %15, align 8, !tbaa !205
  %33 = load ptr, ptr %16, align 8, !tbaa !205
  call void @llvm.lifetime.start.p0(i64 4, ptr %17) #7
  call void @llvm.lifetime.start.p0(i64 4, ptr %18) #7
  %34 = load ptr, ptr %28, align 8, !tbaa !4
  %35 = getelementptr inbounds nuw %struct.gmx_pme_t, ptr %34, i32 0, i32 32
  %36 = load i32, ptr %35, align 4, !tbaa !115
  store i32 %36, ptr %18, align 4, !tbaa !9
  call void @llvm.lifetime.start.p0(i64 4, ptr %19) #7
  %37 = load i32, ptr %18, align 4, !tbaa !9
  %38 = sub nsw i32 %37, 0
  %39 = sdiv i32 %38, 1
  %40 = sub nsw i32 %39, 1
  store i32 %40, ptr %19, align 4, !tbaa !9
  call void @llvm.lifetime.start.p0(i64 4, ptr %20) #7
  store i32 0, ptr %20, align 4, !tbaa !9
  call void @llvm.lifetime.end.p0(i64 4, ptr %20) #7
  %41 = load i32, ptr %18, align 4, !tbaa !9
  %42 = icmp slt i32 0, %41
  br i1 %42, label %43, label %119

43:                                               ; preds = %8
  call void @llvm.lifetime.start.p0(i64 4, ptr %21) #7
  store i32 0, ptr %21, align 4, !tbaa !9
  call void @llvm.lifetime.start.p0(i64 4, ptr %22) #7
  %44 = load i32, ptr %19, align 4, !tbaa !9
  store i32 %44, ptr %22, align 4, !tbaa !9
  call void @llvm.lifetime.start.p0(i64 4, ptr %23) #7
  store i32 1, ptr %23, align 4, !tbaa !9
  call void @llvm.lifetime.start.p0(i64 4, ptr %24) #7
  store i32 0, ptr %24, align 4, !tbaa !9
  call void @llvm.lifetime.start.p0(i64 4, ptr %25) #7
  %45 = load ptr, ptr %9, align 8
  %46 = load i32, ptr %45, align 4, !tbaa !9
  call void @__kmpc_for_static_init_4(ptr @1, i32 %46, i32 34, ptr %24, ptr %21, ptr %22, ptr %23, i32 1, i32 1)
  %47 = load i32, ptr %22, align 4, !tbaa !9
  %48 = load i32, ptr %19, align 4, !tbaa !9
  %49 = icmp sgt i32 %47, %48
  br i1 %49, label %50, label %52

50:                                               ; preds = %43
  %51 = load i32, ptr %19, align 4, !tbaa !9
  br label %54

52:                                               ; preds = %43
  %53 = load i32, ptr %22, align 4, !tbaa !9
  br label %54

54:                                               ; preds = %52, %50
  %55 = phi i32 [ %51, %50 ], [ %53, %52 ]
  store i32 %55, ptr %22, align 4, !tbaa !9
  %56 = load i32, ptr %21, align 4, !tbaa !9
  store i32 %56, ptr %17, align 4, !tbaa !9
  br label %57

57:                                               ; preds = %112, %54
  %58 = load i32, ptr %17, align 4, !tbaa !9
  %59 = load i32, ptr %22, align 4, !tbaa !9
  %60 = icmp sle i32 %58, %59
  br i1 %60, label %62, label %61

61:                                               ; preds = %57
  br label %115

62:                                               ; preds = %57
  %63 = load i32, ptr %17, align 4, !tbaa !9
  %64 = mul nsw i32 %63, 1
  %65 = add nsw i32 0, %64
  store i32 %65, ptr %25, align 4, !tbaa !9
  call void @llvm.lifetime.start.p0(i64 4, ptr %26) #7
  call void @llvm.lifetime.start.p0(i64 4, ptr %27) #7
  store i32 0, ptr %26, align 4, !tbaa !9
  br label %66

66:                                               ; preds = %107, %62
  %67 = load i32, ptr %26, align 4, !tbaa !9
  %68 = load ptr, ptr %28, align 8, !tbaa !4
  %69 = getelementptr inbounds nuw %struct.gmx_pme_t, ptr %68, i32 0, i32 33
  %70 = load i32, ptr %69, align 8, !tbaa !117
  %71 = icmp slt i32 %67, %70
  br i1 %71, label %72, label %110

72:                                               ; preds = %66
  store i32 0, ptr %27, align 4, !tbaa !9
  br label %73

73:                                               ; preds = %103, %72
  %74 = load i32, ptr %27, align 4, !tbaa !9
  %75 = load i32, ptr %29, align 4, !tbaa !9
  %76 = icmp slt i32 %74, %75
  br i1 %76, label %77, label %106

77:                                               ; preds = %73
  %78 = load i32, ptr %25, align 4, !tbaa !9
  %79 = load i32, ptr %31, align 4, !tbaa !9
  %80 = mul nsw i32 %78, %79
  %81 = load i32, ptr %26, align 4, !tbaa !9
  %82 = add nsw i32 %80, %81
  %83 = load i32, ptr %32, align 4, !tbaa !9
  %84 = mul nsw i32 %82, %83
  %85 = load i32, ptr %27, align 4, !tbaa !9
  %86 = add nsw i32 %84, %85
  %87 = sext i32 %86 to i64
  %88 = call noundef nonnull align 4 dereferenceable(4) ptr @_ZNK3gmx8ArrayRefIfEixEm(ptr noundef nonnull align 8 dereferenceable(16) %30, i64 noundef %87)
  %89 = load float, ptr %88, align 4, !tbaa !119
  %90 = load i32, ptr %25, align 4, !tbaa !9
  %91 = load i32, ptr %31, align 4, !tbaa !9
  %92 = mul nsw i32 %90, %91
  %93 = load i32, ptr %26, align 4, !tbaa !9
  %94 = add nsw i32 %92, %93
  %95 = load i32, ptr %32, align 4, !tbaa !9
  %96 = mul nsw i32 %94, %95
  %97 = load i32, ptr %33, align 4, !tbaa !9
  %98 = add nsw i32 %96, %97
  %99 = load i32, ptr %27, align 4, !tbaa !9
  %100 = add nsw i32 %98, %99
  %101 = sext i32 %100 to i64
  %102 = call noundef nonnull align 4 dereferenceable(4) ptr @_ZNK3gmx8ArrayRefIfEixEm(ptr noundef nonnull align 8 dereferenceable(16) %30, i64 noundef %101)
  store float %89, ptr %102, align 4, !tbaa !119
  br label %103

103:                                              ; preds = %77
  %104 = load i32, ptr %27, align 4, !tbaa !9
  %105 = add nsw i32 %104, 1
  store i32 %105, ptr %27, align 4, !tbaa !9
  br label %73, !llvm.loop !212

106:                                              ; preds = %73
  br label %107

107:                                              ; preds = %106
  %108 = load i32, ptr %26, align 4, !tbaa !9
  %109 = add nsw i32 %108, 1
  store i32 %109, ptr %26, align 4, !tbaa !9
  br label %66, !llvm.loop !213

110:                                              ; preds = %66
  call void @llvm.lifetime.end.p0(i64 4, ptr %27) #7
  call void @llvm.lifetime.end.p0(i64 4, ptr %26) #7
  br label %111

111:                                              ; preds = %110
  br label %112

112:                                              ; preds = %111
  %113 = load i32, ptr %17, align 4, !tbaa !9
  %114 = add nsw i32 %113, 1
  store i32 %114, ptr %17, align 4, !tbaa !9
  br label %57

115:                                              ; preds = %61
  br label %116

116:                                              ; preds = %115
  %117 = load ptr, ptr %9, align 8
  %118 = load i32, ptr %117, align 4, !tbaa !9
  call void @__kmpc_for_static_fini(ptr @1, i32 %118)
  call void @llvm.lifetime.end.p0(i64 4, ptr %25) #7
  call void @llvm.lifetime.end.p0(i64 4, ptr %24) #7
  call void @llvm.lifetime.end.p0(i64 4, ptr %23) #7
  call void @llvm.lifetime.end.p0(i64 4, ptr %22) #7
  call void @llvm.lifetime.end.p0(i64 4, ptr %21) #7
  br label %119

119:                                              ; preds = %116, %8
  call void @llvm.lifetime.end.p0(i64 4, ptr %19) #7
  call void @llvm.lifetime.end.p0(i64 4, ptr %18) #7
  call void @llvm.lifetime.end.p0(i64 4, ptr %17) #7
  ret void
}