; Function Attrs: alwaysinline norecurse nounwind uwtable
define internal void @_Z23unwrap_periodic_pmegridP9gmx_pme_tN3gmx8ArrayRefIfEE.omp_outlined.2(ptr noalias noundef readonly captures(none) %0, ptr noalias readnone captures(none) %1, ptr noundef nonnull readonly align 8 captures(none) dereferenceable(8) %2, ptr noundef nonnull readonly align 4 captures(none) dereferenceable(4) %3, ptr noundef nonnull readonly align 8 captures(none) dereferenceable(16) %4, ptr noundef nonnull readonly align 4 captures(none) dereferenceable(4) %5, ptr noundef nonnull readonly align 4 captures(none) dereferenceable(4) %6, ptr noundef nonnull readonly align 4 captures(none) dereferenceable(4) %7) #7 {
  %9 = alloca i32, align 4
  %10 = alloca i32, align 4
  %11 = alloca i32, align 4
  %12 = alloca i32, align 4
  %13 = load ptr, ptr %2, align 8, !tbaa !166
  %14 = getelementptr inbounds nuw i8, ptr %13, i64 148
  %15 = load i32, ptr %14, align 4, !tbaa !104
  %16 = icmp sgt i32 %15, 0
  br i1 %16, label %17, label %48

17:                                               ; preds = %8
  %18 = add nsw i32 %15, -1
  call void @llvm.lifetime.start.p0(i64 4, ptr nonnull %9) #8
  store i32 0, ptr %9, align 4, !tbaa !11
  call void @llvm.lifetime.start.p0(i64 4, ptr nonnull %10) #8
  store i32 %18, ptr %10, align 4, !tbaa !11
  call void @llvm.lifetime.start.p0(i64 4, ptr nonnull %11) #8
  store i32 1, ptr %11, align 4, !tbaa !11
  call void @llvm.lifetime.start.p0(i64 4, ptr nonnull %12) #8
  store i32 0, ptr %12, align 4, !tbaa !11
  %19 = load i32, ptr %0, align 4, !tbaa !11
  call void @__kmpc_for_static_init_4(ptr nonnull @1, i32 %19, i32 34, ptr nonnull %12, ptr nonnull %9, ptr nonnull %10, ptr nonnull %11, i32 1, i32 1)
  %20 = load i32, ptr %10, align 4, !tbaa !11
  %21 = call i32 @llvm.smin.i32(i32 %20, i32 %18)
  store i32 %21, ptr %10, align 4, !tbaa !11
  %22 = load i32, ptr %9, align 4, !tbaa !11
  %.not31 = icmp sgt i32 %22, %21
  br i1 %.not31, label %._crit_edge, label %.preheader27.lr.ph

.preheader27.lr.ph:                               ; preds = %17
  %23 = load ptr, ptr %2, align 8, !tbaa !166
  %24 = getelementptr inbounds nuw i8, ptr %23, i64 152
  %25 = load i32, ptr %24, align 8, !tbaa !106
  %26 = icmp sgt i32 %25, 0
  %27 = load i32, ptr %3, align 4
  %28 = icmp sgt i32 %27, 0
  %or.cond = select i1 %26, i1 %28, i1 false
  br i1 %or.cond, label %.preheader27.us.us.preheader, label %._crit_edge

.preheader27.us.us.preheader:                     ; preds = %.preheader27.lr.ph
  %wide.trip.count43 = zext nneg i32 %25 to i64
  %wide.trip.count = zext nneg i32 %27 to i64
  br label %.preheader27.us.us

.preheader27.us.us:                               ; preds = %.preheader27.us.us.preheader, %._crit_edge30.split.us.us.us
  %.02632.us.us = phi i32 [ %47, %._crit_edge30.split.us.us.us ], [ %22, %.preheader27.us.us.preheader ]
  %29 = load i32, ptr %5, align 4
  %30 = mul nsw i32 %29, %.02632.us.us
  %31 = load i32, ptr %6, align 4
  %32 = load i32, ptr %7, align 4
  %33 = sext i32 %30 to i64
  %34 = sext i32 %31 to i64
  br label %.preheader.us.us.us

.preheader.us.us.us:                              ; preds = %._crit_edge.us.us.us, %.preheader27.us.us
  %indvars.iv40 = phi i64 [ %indvars.iv.next41, %._crit_edge.us.us.us ], [ 0, %.preheader27.us.us ]
  %35 = add nsw i64 %indvars.iv40, %33
  %36 = mul nsw i64 %35, %34
  %37 = trunc nsw i64 %36 to i32
  %invariant.op.us.us.us = add i32 %32, %37
  br label %38

38:                                               ; preds = %38, %.preheader.us.us.us
  %indvars.iv = phi i64 [ %indvars.iv.next, %38 ], [ 0, %.preheader.us.us.us ]
  %39 = load i64, ptr %4, align 8
  %40 = inttoptr i64 %39 to ptr
  %41 = getelementptr float, ptr %40, i64 %36
  %42 = getelementptr float, ptr %41, i64 %indvars.iv
  %43 = load float, ptr %42, align 4, !tbaa !109
  %44 = trunc nuw nsw i64 %indvars.iv to i32
  %.reass.us.us.us = add i32 %invariant.op.us.us.us, %44
  %45 = sext i32 %.reass.us.us.us to i64
  %46 = getelementptr inbounds float, ptr %40, i64 %45
  store float %43, ptr %46, align 4, !tbaa !109
  %indvars.iv.next = add nuw nsw i64 %indvars.iv, 1
  %exitcond.not = icmp eq i64 %indvars.iv.next, %wide.trip.count
  br i1 %exitcond.not, label %._crit_edge.us.us.us, label %38, !llvm.loop !176

._crit_edge.us.us.us:                             ; preds = %38
  %indvars.iv.next41 = add nuw nsw i64 %indvars.iv40, 1
  %exitcond44.not = icmp eq i64 %indvars.iv.next41, %wide.trip.count43
  br i1 %exitcond44.not, label %._crit_edge30.split.us.us.us, label %.preheader.us.us.us, !llvm.loop !177

._crit_edge30.split.us.us.us:                     ; preds = %._crit_edge.us.us.us
  %47 = add i32 %.02632.us.us, 1
  %exitcond45.not = icmp eq i32 %.02632.us.us, %21
  br i1 %exitcond45.not, label %._crit_edge, label %.preheader27.us.us

._crit_edge:                                      ; preds = %._crit_edge30.split.us.us.us, %.preheader27.lr.ph, %17
  call void @__kmpc_for_static_fini(ptr nonnull @1, i32 %19)
  call void @llvm.lifetime.end.p0(i64 4, ptr nonnull %12) #8
  call void @llvm.lifetime.end.p0(i64 4, ptr nonnull %11) #8
  call void @llvm.lifetime.end.p0(i64 4, ptr nonnull %10) #8
  call void @llvm.lifetime.end.p0(i64 4, ptr nonnull %9) #8
  br label %48

48:                                               ; preds = %._crit_edge, %8
  ret void
}